TN:
SF:/afs/cats.ucsc.edu/users/q/yli685/cse111/Assignment3/src/Circle.cc
FN:6,_ZN6CircleC2ERK5Pointd
FNDA:42,_ZN6CircleC2ERK5Pointd
FN:12,_ZN6Circle11ContainedByER16ReuleauxTriangle
FNDA:7,_ZN6Circle11ContainedByER16ReuleauxTriangle
FN:21,_ZN6Circle11ContainedByER7Polygon
FNDA:0,_ZN6Circle11ContainedByER7Polygon
FN:26,_ZN6Circle11ContainedByERS_
FNDA:18,_ZN6Circle11ContainedByERS_
FN:33,_ZN6Circle6CenterEv
FNDA:36,_ZN6Circle6CenterEv
FN:38,_ZN6Circle6RadiusEv
FNDA:36,_ZN6Circle6RadiusEv
DA:6,42
DA:8,42
DA:9,42
DA:10,42
DA:12,7
DA:14,7
DA:15,7
DA:16,7
DA:17,7
BRDA:17,0,0,2
BRDA:17,0,1,5
BRDA:17,0,2,2
BRDA:17,0,3,0
BRDA:17,0,4,2
BRDA:17,0,5,0
DA:21,0
DA:23,0
DA:26,18
DA:28,18
DA:29,18
DA:30,18
DA:33,36
DA:35,36
DA:38,36
DA:40,36
end_of_record
TN:
SF:/afs/cats.ucsc.edu/users/q/yli685/cse111/Assignment3/src/Geom.cc
FN:3,_ZN4Geom10SeparationERK5PointS2_
FNDA:25,_ZN4Geom10SeparationERK5PointS2_
DA:3,25
DA:5,25
end_of_record
TN:
SF:/afs/cats.ucsc.edu/users/q/yli685/cse111/Assignment3/src/Reuleaux.cc
FN:4,_ZN16ReuleauxTriangleC2EPK5Point
FNDA:7,_ZN16ReuleauxTriangleC2EPK5Point
FN:13,_ZN16ReuleauxTriangle11ContainedByER6Circle
FNDA:0,_ZN16ReuleauxTriangle11ContainedByER6Circle
FN:18,_ZN16ReuleauxTriangle11ContainedByER7Polygon
FNDA:0,_ZN16ReuleauxTriangle11ContainedByER7Polygon
FN:23,_ZN16ReuleauxTriangle11ContainedByERS_
FNDA:0,_ZN16ReuleauxTriangle11ContainedByERS_
FN:29,_ZN16ReuleauxTriangle8Vertice1Ev
FNDA:7,_ZN16ReuleauxTriangle8Vertice1Ev
FN:33,_ZN16ReuleauxTriangle8Vertice2Ev
FNDA:7,_ZN16ReuleauxTriangle8Vertice2Ev
FN:37,_ZN16ReuleauxTriangle8Vertice3Ev
FNDA:7,_ZN16ReuleauxTriangle8Vertice3Ev
FN:42,_ZN16ReuleauxTriangle6RadiusEv
FNDA:21,_ZN16ReuleauxTriangle6RadiusEv
DA:4,7
DA:6,7
DA:7,7
DA:8,7
DA:9,7
DA:10,7
DA:13,0
DA:15,0
DA:18,0
DA:20,0
DA:23,0
DA:25,0
DA:29,7
DA:31,7
DA:33,7
DA:35,7
DA:37,7
DA:39,7
DA:42,21
DA:44,21
end_of_record
